target datalayout = "e-m:e-p270:32:32-p271:32:32-p272:64:64-i64:64-i128:128-f80:128-n8:16:32:64-S128"
target triple = "x86_64-pc-linux-gnu"

%struct.AVCodecContext = type { ptr, i32, i32, ptr, i32, i32, ptr, ptr, ptr, i64, i32, i32, ptr, i32, %struct.AVRational, %struct.AVRational, %struct.AVRational, i32, i32, i32, i32, i32, %struct.AVRational, i32, i32, i32, i32, i32, i32, i32, i32, i32, i32, i32, ptr, ptr, i32, float, float, float, float, float, float, float, float, float, i32, i32, i32, i32, i32, i32, i32, i32, i32, i32, i32, i32, ptr, ptr, ptr, i32, i32, i32, i32, i32, i32, i32, i32, i32, i32, %struct.AVChannelLayout, i32, i32, i32, i32, i32, i32, i32, i32, ptr, i32, i32, i32, float, float, i32, i32, i32, i32, i32, ptr, i64, i64, float, float, i32, i32, ptr, ptr, i32, i32, i32, i32, i32, ptr, ptr, ptr, ptr, i32, i32, [8 x i64], i32, i32, i32, i32, i32, i32, i32, ptr, ptr, i32, i32, i32, i32, i32, i32, i32, i32, i32, i32, ptr, ptr, i32, i32, ptr, ptr, ptr, ptr, i32, i32, i64, i32, i32, i64, ptr, i64, ptr, i32, ptr, i32 }
%struct.AVRational = type { i32, i32 }
%struct.AVChannelLayout = type { i32, i32, %union.anon.0, ptr }
%union.anon.0 = type { i64 }
%struct.HCAContext = type { ptr, [8 x i8], [16 x %struct.ChannelContext], [128 x i8], [256 x i8], i64, i16, i32, i32, i32, i8, i8, i8, i8, i8, i8, ptr, ptr, ptr, [8 x i8] }
%struct.ChannelContext = type { [128 x float], [128 x float], [128 x float], [128 x float], [128 x float], [128 x i8], [128 x i8], [8 x i8], ptr, i32, i32, [8 x i8] }

; Function Attrs: cold nounwind optsize uwtable
define internal void @decode_flush(ptr noundef %0) #0 {
  %2 = alloca ptr, align 8
  %3 = alloca ptr, align 8
  %4 = alloca i32, align 4
  store ptr %0, ptr %2, align 8, !tbaa !4
  call void @llvm.lifetime.start.p0(i64 8, ptr %3) #12
  %5 = load ptr, ptr %2, align 8, !tbaa !4
  %6 = getelementptr inbounds nuw %struct.AVCodecContext, ptr %5, i32 0, i32 6
  %7 = load ptr, ptr %6, align 8, !tbaa !9
  store ptr %7, ptr %3, align 8, !tbaa !29
  call void @llvm.lifetime.start.p0(i64 4, ptr %4) #12
  store i32 0, ptr %4, align 4, !tbaa !40
  br label %8

8:                                                ; preds = %20, %1
  %9 = load i32, ptr %4, align 4, !tbaa !40
  %10 = icmp slt i32 %9, 16
  br i1 %10, label %12, label %11

11:                                               ; preds = %8
  call void @llvm.lifetime.end.p0(i64 4, ptr %4) #12
  br label %23

12:                                               ; preds = %8
  %13 = load ptr, ptr %3, align 8, !tbaa !29
  %14 = getelementptr inbounds nuw %struct.HCAContext, ptr %13, i32 0, i32 2
  %15 = load i32, ptr %4, align 4, !tbaa !40
  %16 = sext i32 %15 to i64
  %17 = getelementptr inbounds [16 x %struct.ChannelContext], ptr %14, i64 0, i64 %16
  %18 = getelementptr inbounds nuw %struct.ChannelContext, ptr %17, i32 0, i32 4
  %19 = getelementptr inbounds [128 x float], ptr %18, i64 0, i64 0
  call void @llvm.memset.p0.i64(ptr align 16 %19, i8 0, i64 512, i1 false)
  br label %20

20:                                               ; preds = %12
  %21 = load i32, ptr %4, align 4, !tbaa !40
  %22 = add nsw i32 %21, 1
  store i32 %22, ptr %4, align 4, !tbaa !40
  br label %8, !llvm.loop !82

23:                                               ; preds = %11
  call void @llvm.lifetime.end.p0(i64 8, ptr %3) #12
  ret void
}