; Function Attrs: cold nofree norecurse nosync nounwind optsize memory(write, argmem: readwrite, inaccessiblemem: none) uwtable
define internal void @decode_flush(ptr noundef readonly captures(none) %0) #2 {
  %2 = getelementptr inbounds nuw i8, ptr %0, i64 32
  %3 = load ptr, ptr %2, align 8, !tbaa !4
  %invariant.gep = getelementptr inbounds nuw i8, ptr %3, i64 2064
  br label %5

4:                                                ; preds = %5
  ret void

5:                                                ; preds = %1, %5
  %indvars.iv = phi i64 [ 0, %1 ], [ %indvars.iv.next, %5 ]
  %6 = mul nuw nsw i64 %indvars.iv, 2848
  %gep = getelementptr inbounds nuw i8, ptr %invariant.gep, i64 %6
  tail call void @llvm.memset.p0.i64(ptr noundef nonnull align 16 dereferenceable(512) %gep, i8 0, i64 512, i1 false)
  %indvars.iv.next = add nuw nsw i64 %indvars.iv, 1
  %exitcond.not = icmp eq i64 %indvars.iv.next, 16
  br i1 %exitcond.not, label %4, label %5, !llvm.loop !87
}